; Function Attrs: mustprogress nounwind uwtable
define hidden void @_ZN12G1BarrierSet16on_thread_attachEP6Thread(ptr noundef nonnull align 8 dereferenceable(2592) %0, ptr noundef %1) unnamed_addr #0 align 2 {
  tail call void @_ZN10BarrierSet16on_thread_attachEP6Thread(ptr noundef nonnull align 8 dereferenceable(64) %0, ptr noundef %1) #9
  %3 = getelementptr inbounds i8, ptr %0, i64 1560
  %4 = load i8, ptr %3, align 8
  %5 = and i8 %4, 1
  %6 = getelementptr inbounds i8, ptr %1, i64 56
  store i8 %5, ptr %6, align 8
  ret void
}